; Function Attrs: nounwind uwtable
define dso_local void @list_append(ptr noundef %0, ptr noundef %1) #0 {
  %3 = getelementptr inbounds nuw i8, ptr %0, i64 40
  %4 = tail call i32 @pthread_rwlock_wrlock(ptr noundef nonnull %3) #9
  %.not = icmp eq i32 %4, 0
  br i1 %.not, label %7, label %5

5:                                                ; preds = %2
  %6 = tail call ptr @__errno_location() #10
  store i32 %4, ptr %6, align 4
  tail call void (ptr, ...) @fatal_abort(ptr noundef nonnull @.str.2, ptr noundef nonnull @__func__.list_append) #11
  unreachable

7:                                                ; preds = %2
  %8 = getelementptr inbounds nuw i8, ptr %0, i64 16
  %9 = load ptr, ptr %8, align 8
  %10 = getelementptr inbounds nuw i8, ptr %0, i64 96
  %11 = load ptr, ptr %10, align 8
  %.not.i = icmp eq ptr %11, null
  br i1 %.not.i, label %12, label %.loopexit.i

12:                                               ; preds = %7
  %13 = tail call ptr @slurm_xcalloc(i64 noundef 247, i64 noundef 16, i1 noundef zeroext true, i1 noundef zeroext false, ptr noundef nonnull @.str, i32 noundef 972, ptr noundef nonnull @__func__._list_node_create) #9
  %14 = getelementptr inbounds nuw i8, ptr %0, i64 104
  %15 = load ptr, ptr %14, align 8
  %16 = getelementptr inbounds nuw i8, ptr %13, i64 8
  store ptr %15, ptr %16, align 8
  store ptr %13, ptr %14, align 8
  %17 = getelementptr inbounds nuw i8, ptr %13, i64 16
  store ptr %17, ptr %10, align 8
  br label %18

18:                                               ; preds = %18, %12
  %indvars.iv.i = phi i64 [ 1, %12 ], [ %indvars.iv.next.i, %18 ]
  %indvars.iv.next.i = add nuw nsw i64 %indvars.iv.i, 1
  %19 = getelementptr inbounds nuw %struct.listNode, ptr %13, i64 %indvars.iv.next.i
  %20 = getelementptr inbounds nuw %struct.listNode, ptr %13, i64 %indvars.iv.i, i32 1
  store ptr %19, ptr %20, align 8
  %exitcond.not.i = icmp eq i64 %indvars.iv.next.i, 246
  br i1 %exitcond.not.i, label %.loopexit.loopexit.i, label %18, !llvm.loop !14

.loopexit.loopexit.i:                             ; preds = %18
  %.pre.i = load ptr, ptr %10, align 8
  br label %.loopexit.i

.loopexit.i:                                      ; preds = %.loopexit.loopexit.i, %7
  %21 = phi ptr [ %.pre.i, %.loopexit.loopexit.i ], [ %11, %7 ]
  %22 = getelementptr inbounds nuw i8, ptr %21, i64 8
  %23 = load ptr, ptr %22, align 8
  store ptr %23, ptr %10, align 8
  store ptr %1, ptr %21, align 8
  %24 = load ptr, ptr %9, align 8
  store ptr %24, ptr %22, align 8
  %.not36.i = icmp eq ptr %24, null
  br i1 %.not36.i, label %25, label %26

25:                                               ; preds = %.loopexit.i
  store ptr %22, ptr %8, align 8
  br label %26

26:                                               ; preds = %25, %.loopexit.i
  store ptr %21, ptr %9, align 8
  %27 = getelementptr inbounds nuw i8, ptr %0, i64 4
  %28 = load i32, ptr %27, align 4
  %29 = add nsw i32 %28, 1
  store i32 %29, ptr %27, align 4
  %30 = getelementptr inbounds nuw i8, ptr %0, i64 24
  %.03539.i = load ptr, ptr %30, align 8
  %.not3740.i = icmp eq ptr %.03539.i, null
  br i1 %.not3740.i, label %_list_node_create.exit, label %.lr.ph.i

.lr.ph.i:                                         ; preds = %26, %41
  %.03541.i = phi ptr [ %.035.i, %41 ], [ %.03539.i, %26 ]
  %31 = getelementptr inbounds nuw i8, ptr %.03541.i, i64 24
  %32 = load ptr, ptr %31, align 8
  %33 = icmp eq ptr %32, %9
  br i1 %33, label %34, label %35

34:                                               ; preds = %.lr.ph.i
  store ptr %22, ptr %31, align 8
  br label %41

35:                                               ; preds = %.lr.ph.i
  %36 = getelementptr inbounds nuw i8, ptr %.03541.i, i64 16
  %37 = load ptr, ptr %36, align 8
  %38 = load ptr, ptr %22, align 8
  %39 = icmp eq ptr %37, %38
  br i1 %39, label %40, label %41

40:                                               ; preds = %35
  store ptr %21, ptr %36, align 8
  br label %41

41:                                               ; preds = %40, %35, %34
  %42 = getelementptr inbounds nuw i8, ptr %.03541.i, i64 32
  %.035.i = load ptr, ptr %42, align 8
  %.not37.i = icmp eq ptr %.035.i, null
  br i1 %.not37.i, label %_list_node_create.exit, label %.lr.ph.i, !llvm.loop !15

_list_node_create.exit:                           ; preds = %41, %26
  %43 = tail call i32 @pthread_rwlock_unlock(ptr noundef nonnull %3) #9
  %.not9 = icmp eq i32 %43, 0
  br i1 %.not9, label %46, label %44

44:                                               ; preds = %_list_node_create.exit
  %45 = tail call ptr @__errno_location() #10
  store i32 %43, ptr %45, align 4
  tail call void (ptr, ...) @fatal_abort(ptr noundef nonnull @.str.3, ptr noundef nonnull @__func__.list_append) #11
  unreachable

46:                                               ; preds = %_list_node_create.exit
  ret void
}